; Function Attrs: nounwind uwtable
define ptr @l___private_Lean_Elab_MutualInductive_0__Lean_Elab_Command_mkInductiveDecl___lambda__6___boxed(ptr noundef readonly captures(none) %0) local_unnamed_addr #1 {
  %2 = load ptr, ptr %0, align 8, !tbaa !12
  %3 = getelementptr inbounds nuw i8, ptr %0, i64 8
  %4 = load ptr, ptr %3, align 8, !tbaa !12
  %5 = getelementptr inbounds nuw i8, ptr %0, i64 16
  %6 = load ptr, ptr %5, align 8, !tbaa !12
  %7 = getelementptr inbounds nuw i8, ptr %0, i64 24
  %8 = load ptr, ptr %7, align 8, !tbaa !12
  %9 = getelementptr inbounds nuw i8, ptr %0, i64 32
  %10 = load ptr, ptr %9, align 8, !tbaa !12
  %11 = getelementptr inbounds nuw i8, ptr %0, i64 40
  %12 = load ptr, ptr %11, align 8, !tbaa !12
  %13 = getelementptr inbounds nuw i8, ptr %0, i64 48
  %14 = load ptr, ptr %13, align 8, !tbaa !12
  %15 = getelementptr inbounds nuw i8, ptr %0, i64 56
  %16 = load ptr, ptr %15, align 8, !tbaa !12
  %17 = getelementptr inbounds nuw i8, ptr %0, i64 64
  %18 = load ptr, ptr %17, align 8, !tbaa !12
  %19 = getelementptr inbounds nuw i8, ptr %0, i64 72
  %20 = load ptr, ptr %19, align 8, !tbaa !12
  %21 = getelementptr inbounds nuw i8, ptr %0, i64 80
  %22 = load ptr, ptr %21, align 8, !tbaa !12
  %23 = getelementptr inbounds nuw i8, ptr %0, i64 88
  %24 = load ptr, ptr %23, align 8, !tbaa !12
  %25 = getelementptr inbounds nuw i8, ptr %0, i64 96
  %26 = load ptr, ptr %25, align 8, !tbaa !12
  %27 = getelementptr inbounds nuw i8, ptr %0, i64 104
  %28 = load ptr, ptr %27, align 8, !tbaa !12
  %29 = getelementptr inbounds nuw i8, ptr %0, i64 112
  %30 = load ptr, ptr %29, align 8, !tbaa !12
  %31 = getelementptr inbounds nuw i8, ptr %0, i64 120
  %32 = load ptr, ptr %31, align 8, !tbaa !12
  %33 = getelementptr inbounds nuw i8, ptr %0, i64 128
  %34 = load ptr, ptr %33, align 8, !tbaa !12
  %35 = getelementptr inbounds nuw i8, ptr %0, i64 136
  %36 = load ptr, ptr %35, align 8, !tbaa !12
  %37 = getelementptr inbounds nuw i8, ptr %0, i64 144
  %38 = load ptr, ptr %37, align 8, !tbaa !12
  %39 = getelementptr inbounds nuw i8, ptr %0, i64 152
  %40 = load ptr, ptr %39, align 8, !tbaa !12
  %41 = ptrtoint ptr %20 to i64
  %42 = lshr i64 %41, 1
  %43 = trunc i64 %42 to i8
  %44 = and i64 %41, 1
  %.not = icmp eq i64 %44, 0
  br i1 %.not, label %45, label %lean_dec.exit52

45:                                               ; preds = %1
  %46 = load i32, ptr %20, align 4, !tbaa !8
  %47 = icmp sgt i32 %46, 1
  br i1 %47, label %48, label %50, !prof !11

48:                                               ; preds = %45
  %49 = add nsw i32 %46, -1
  store i32 %49, ptr %20, align 4, !tbaa !8
  br label %lean_dec.exit52

50:                                               ; preds = %45
  %.not.i = icmp eq i32 %46, 0
  br i1 %.not.i, label %lean_dec.exit52, label %51

51:                                               ; preds = %50
  tail call void @lean_dec_ref_cold(ptr noundef nonnull %20) #5
  br label %lean_dec.exit52

lean_dec.exit52:                                  ; preds = %51, %50, %48, %1
  %52 = getelementptr i8, ptr %22, i64 8
  %.val = load i64, ptr %52, align 8, !tbaa !4
  %53 = ptrtoint ptr %22 to i64
  %54 = and i64 %53, 1
  %.not63 = icmp eq i64 %54, 0
  br i1 %.not63, label %55, label %lean_dec.exit51

55:                                               ; preds = %lean_dec.exit52
  %56 = load i32, ptr %22, align 4, !tbaa !8
  %57 = icmp sgt i32 %56, 1
  br i1 %57, label %58, label %60, !prof !11

58:                                               ; preds = %55
  %59 = add nsw i32 %56, -1
  store i32 %59, ptr %22, align 4, !tbaa !8
  br label %lean_dec.exit51

60:                                               ; preds = %55
  %.not.i53 = icmp eq i32 %56, 0
  br i1 %.not.i53, label %lean_dec.exit51, label %61

61:                                               ; preds = %60
  tail call void @lean_dec_ref_cold(ptr noundef nonnull %22) #5
  br label %lean_dec.exit51

lean_dec.exit51:                                  ; preds = %61, %60, %58, %lean_dec.exit52
  %62 = tail call ptr @l___private_Lean_Elab_MutualInductive_0__Lean_Elab_Command_mkInductiveDecl___lambda__6(ptr noundef %2, ptr noundef %4, ptr noundef %6, ptr noundef %8, ptr noundef %10, ptr noundef %12, ptr noundef %14, ptr noundef %16, ptr noundef %18, i8 noundef zeroext %43, i64 noundef %.val, ptr noundef %24, ptr poison, ptr noundef %28, ptr noundef %30, ptr noundef %32, ptr noundef %34, ptr noundef %36, ptr noundef %38, ptr noundef %40)
  %63 = ptrtoint ptr %26 to i64
  %64 = and i64 %63, 1
  %.not64 = icmp eq i64 %64, 0
  br i1 %.not64, label %65, label %lean_dec.exit50

65:                                               ; preds = %lean_dec.exit51
  %66 = load i32, ptr %26, align 4, !tbaa !8
  %67 = icmp sgt i32 %66, 1
  br i1 %67, label %68, label %70, !prof !11

68:                                               ; preds = %65
  %69 = add nsw i32 %66, -1
  store i32 %69, ptr %26, align 4, !tbaa !8
  br label %lean_dec.exit50

70:                                               ; preds = %65
  %.not.i55 = icmp eq i32 %66, 0
  br i1 %.not.i55, label %lean_dec.exit50, label %71

71:                                               ; preds = %70
  tail call void @lean_dec_ref_cold(ptr noundef nonnull %26) #5
  br label %lean_dec.exit50

lean_dec.exit50:                                  ; preds = %71, %70, %68, %lean_dec.exit51
  %72 = ptrtoint ptr %24 to i64
  %73 = and i64 %72, 1
  %.not65 = icmp eq i64 %73, 0
  br i1 %.not65, label %74, label %lean_dec.exit49

74:                                               ; preds = %lean_dec.exit50
  %75 = load i32, ptr %24, align 4, !tbaa !8
  %76 = icmp sgt i32 %75, 1
  br i1 %76, label %77, label %79, !prof !11

77:                                               ; preds = %74
  %78 = add nsw i32 %75, -1
  store i32 %78, ptr %24, align 4, !tbaa !8
  br label %lean_dec.exit49

79:                                               ; preds = %74
  %.not.i57 = icmp eq i32 %75, 0
  br i1 %.not.i57, label %lean_dec.exit49, label %80

80:                                               ; preds = %79
  tail call void @lean_dec_ref_cold(ptr noundef nonnull %24) #5
  br label %lean_dec.exit49

lean_dec.exit49:                                  ; preds = %80, %79, %77, %lean_dec.exit50
  %81 = ptrtoint ptr %8 to i64
  %82 = and i64 %81, 1
  %.not66 = icmp eq i64 %82, 0
  br i1 %.not66, label %83, label %lean_dec.exit48

83:                                               ; preds = %lean_dec.exit49
  %84 = load i32, ptr %8, align 4, !tbaa !8
  %85 = icmp sgt i32 %84, 1
  br i1 %85, label %86, label %88, !prof !11

86:                                               ; preds = %83
  %87 = add nsw i32 %84, -1
  store i32 %87, ptr %8, align 4, !tbaa !8
  br label %lean_dec.exit48

88:                                               ; preds = %83
  %.not.i59 = icmp eq i32 %84, 0
  br i1 %.not.i59, label %lean_dec.exit48, label %89

89:                                               ; preds = %88
  tail call void @lean_dec_ref_cold(ptr noundef nonnull %8) #5
  br label %lean_dec.exit48

lean_dec.exit48:                                  ; preds = %89, %88, %86, %lean_dec.exit49
  %90 = ptrtoint ptr %2 to i64
  %91 = and i64 %90, 1
  %.not67 = icmp eq i64 %91, 0
  br i1 %.not67, label %92, label %lean_dec.exit

92:                                               ; preds = %lean_dec.exit48
  %93 = load i32, ptr %2, align 4, !tbaa !8
  %94 = icmp sgt i32 %93, 1
  br i1 %94, label %95, label %97, !prof !11

95:                                               ; preds = %92
  %96 = add nsw i32 %93, -1
  store i32 %96, ptr %2, align 4, !tbaa !8
  br label %lean_dec.exit

97:                                               ; preds = %92
  %.not.i61 = icmp eq i32 %93, 0
  br i1 %.not.i61, label %lean_dec.exit, label %98

98:                                               ; preds = %97
  tail call void @lean_dec_ref_cold(ptr noundef nonnull %2) #5
  br label %lean_dec.exit

lean_dec.exit:                                    ; preds = %98, %97, %95, %lean_dec.exit48
  ret ptr %62
}